target datalayout = "e-m:e-p270:32:32-p271:32:32-p272:64:64-i64:64-i128:128-f80:128-n8:16:32:64-S128"
target triple = "x86_64-pc-linux-gnu"

%struct.pm_lex_mode = type { i32, %union.anon, ptr }
%union.anon = type { %struct.anon.3 }
%struct.anon.3 = type { %struct.pm_heredoc_lex_mode_t, ptr, ptr, i8 }
%struct.pm_heredoc_lex_mode_t = type { ptr, i64, i32, i32 }
%struct.pm_parser = type { i32, i32, i32, i32, i32, i32, i32, %struct.anon, ptr, ptr, %struct.pm_token_t, %struct.pm_token_t, ptr, ptr, %struct.pm_list_t, %struct.pm_list_t, %struct.pm_location_t, %struct.pm_list_t, %struct.pm_list_t, ptr, ptr, ptr, ptr, ptr, ptr, ptr, %struct.pm_string_t, %struct.pm_constant_pool_t, %struct.pm_newline_list_t, i16, %struct.pm_string_t, i32, ptr, ptr, i32, i8, i8, i8, i8, i8, i8, i8, i8, i8, i8, i8, i8, i8 }
%struct.anon = type { ptr, [4 x %struct.pm_lex_mode], i64 }
%struct.pm_token_t = type { i32, ptr, ptr }
%struct.pm_location_t = type { ptr, ptr }
%struct.pm_list_t = type { i64, ptr, ptr }
%struct.pm_constant_pool_t = type { ptr, ptr, i32, i32 }
%struct.pm_newline_list_t = type { ptr, i64, i64, ptr }
%struct.pm_string_t = type { ptr, i64, i32 }
%struct.pm_node_list = type { i64, i64, ptr }
%struct.pm_node = type { i16, i16, i32, %struct.pm_location_t }
%struct.pm_case_match_node = type { %struct.pm_node, ptr, %struct.pm_node_list, ptr, %struct.pm_location_t, %struct.pm_location_t }

@stderr = external global ptr, align 8
@.str.94 = private unnamed_addr constant [29 x i8] c"Failed to allocate %d bytes\0A\00", align 1

; Function Attrs: inlinehint nounwind sspstrong uwtable
define internal ptr @pm_node_alloc(ptr noundef %0, i64 noundef %1) #7 {
  %3 = alloca ptr, align 8
  %4 = alloca i64, align 8
  %5 = alloca ptr, align 8
  store ptr %0, ptr %3, align 8, !tbaa !7
  store i64 %1, ptr %4, align 8, !tbaa !14
  call void @llvm.lifetime.start.p0(i64 8, ptr %5) #15
  %6 = load i64, ptr %4, align 8, !tbaa !14
  %7 = call noalias ptr @calloc(i64 noundef 1, i64 noundef %6) #18
  store ptr %7, ptr %5, align 8, !tbaa !57
  %8 = load ptr, ptr %5, align 8, !tbaa !57
  %9 = icmp eq ptr %8, null
  br i1 %9, label %10, label %15

10:                                               ; preds = %2
  %11 = load ptr, ptr @stderr, align 8, !tbaa !452
  %12 = load i64, ptr %4, align 8, !tbaa !14
  %13 = trunc i64 %12 to i32
  %14 = call i32 (ptr, i32, ptr, ...) @__fprintf_chk(ptr noundef %11, i32 noundef 1, ptr noundef @.str.94, i32 noundef %13)
  call void @abort() #19
  unreachable

15:                                               ; preds = %2
  %16 = load ptr, ptr %5, align 8, !tbaa !57
  call void @llvm.lifetime.end.p0(i64 8, ptr %5) #15
  ret ptr %16
}

; Function Attrs: nounwind sspstrong uwtable
define internal ptr @pm_case_match_node_create(ptr noundef %0, ptr noundef %1, ptr noundef %2, ptr noundef %3) #0 {
  %5 = alloca ptr, align 8
  %6 = alloca ptr, align 8
  %7 = alloca ptr, align 8
  %8 = alloca ptr, align 8
  %9 = alloca ptr, align 8
  %10 = alloca %struct.pm_case_match_node, align 8
  store ptr %0, ptr %5, align 8, !tbaa !7
  store ptr %1, ptr %6, align 8, !tbaa !57
  store ptr %2, ptr %7, align 8, !tbaa !128
  store ptr %3, ptr %8, align 8, !tbaa !57
  call void @llvm.lifetime.start.p0(i64 8, ptr %9) #15
  %11 = load ptr, ptr %5, align 8, !tbaa !7
  %12 = call ptr @pm_node_alloc(ptr noundef %11, i64 noundef 96)
  store ptr %12, ptr %9, align 8, !tbaa !392
  %13 = load ptr, ptr %9, align 8, !tbaa !392
  %14 = getelementptr inbounds nuw %struct.pm_case_match_node, ptr %10, i32 0, i32 0
  %15 = getelementptr inbounds nuw %struct.pm_node, ptr %14, i32 0, i32 0
  store i16 24, ptr %15, align 8, !tbaa !206
  %16 = getelementptr inbounds nuw %struct.pm_node, ptr %14, i32 0, i32 1
  store i16 0, ptr %16, align 2, !tbaa !222
  %17 = getelementptr inbounds nuw %struct.pm_node, ptr %14, i32 0, i32 2
  %18 = load ptr, ptr %5, align 8, !tbaa !7
  %19 = getelementptr inbounds nuw %struct.pm_parser, ptr %18, i32 0, i32 0
  %20 = load i32, ptr %19, align 8, !tbaa !238
  %21 = add i32 %20, 1
  store i32 %21, ptr %19, align 8, !tbaa !238
  store i32 %21, ptr %17, align 4, !tbaa !239
  %22 = getelementptr inbounds nuw %struct.pm_node, ptr %14, i32 0, i32 3
  %23 = getelementptr inbounds nuw %struct.pm_location_t, ptr %22, i32 0, i32 0
  %24 = load ptr, ptr %6, align 8, !tbaa !57
  %25 = getelementptr inbounds nuw %struct.pm_token_t, ptr %24, i32 0, i32 1
  %26 = load ptr, ptr %25, align 8, !tbaa !43
  store ptr %26, ptr %23, align 8, !tbaa !152
  %27 = getelementptr inbounds nuw %struct.pm_location_t, ptr %22, i32 0, i32 1
  %28 = load ptr, ptr %8, align 8, !tbaa !57
  %29 = getelementptr inbounds nuw %struct.pm_token_t, ptr %28, i32 0, i32 2
  %30 = load ptr, ptr %29, align 8, !tbaa !44
  store ptr %30, ptr %27, align 8, !tbaa !153
  %31 = getelementptr inbounds nuw %struct.pm_case_match_node, ptr %10, i32 0, i32 1
  %32 = load ptr, ptr %7, align 8, !tbaa !128
  store ptr %32, ptr %31, align 8, !tbaa !590
  %33 = getelementptr inbounds nuw %struct.pm_case_match_node, ptr %10, i32 0, i32 2
  call void @llvm.memset.p0.i64(ptr align 8 %33, i8 0, i64 24, i1 false)
  %34 = getelementptr inbounds nuw %struct.pm_case_match_node, ptr %10, i32 0, i32 3
  store ptr null, ptr %34, align 8, !tbaa !591
  %35 = getelementptr inbounds nuw %struct.pm_case_match_node, ptr %10, i32 0, i32 4
  %36 = getelementptr inbounds nuw %struct.pm_location_t, ptr %35, i32 0, i32 0
  %37 = load ptr, ptr %6, align 8, !tbaa !57
  %38 = getelementptr inbounds nuw %struct.pm_token_t, ptr %37, i32 0, i32 1
  %39 = load ptr, ptr %38, align 8, !tbaa !43
  store ptr %39, ptr %36, align 8, !tbaa !152
  %40 = getelementptr inbounds nuw %struct.pm_location_t, ptr %35, i32 0, i32 1
  %41 = load ptr, ptr %6, align 8, !tbaa !57
  %42 = getelementptr inbounds nuw %struct.pm_token_t, ptr %41, i32 0, i32 2
  %43 = load ptr, ptr %42, align 8, !tbaa !44
  store ptr %43, ptr %40, align 8, !tbaa !153
  %44 = getelementptr inbounds nuw %struct.pm_case_match_node, ptr %10, i32 0, i32 5
  %45 = getelementptr inbounds nuw %struct.pm_location_t, ptr %44, i32 0, i32 0
  %46 = load ptr, ptr %8, align 8, !tbaa !57
  %47 = getelementptr inbounds nuw %struct.pm_token_t, ptr %46, i32 0, i32 1
  %48 = load ptr, ptr %47, align 8, !tbaa !43
  store ptr %48, ptr %45, align 8, !tbaa !152
  %49 = getelementptr inbounds nuw %struct.pm_location_t, ptr %44, i32 0, i32 1
  %50 = load ptr, ptr %8, align 8, !tbaa !57
  %51 = getelementptr inbounds nuw %struct.pm_token_t, ptr %50, i32 0, i32 2
  %52 = load ptr, ptr %51, align 8, !tbaa !44
  store ptr %52, ptr %49, align 8, !tbaa !153
  call void @llvm.memcpy.p0.p0.i64(ptr align 8 %13, ptr align 8 %10, i64 96, i1 false), !tbaa.struct !584
  %53 = load ptr, ptr %9, align 8, !tbaa !392
  call void @llvm.lifetime.end.p0(i64 8, ptr %9) #15
  ret ptr %53
}