; Function Attrs: nounwind sspstrong uwtable
define internal fastcc noalias nonnull ptr @pm_case_match_node_create(ptr noundef captures(none) %0, ptr %.8.val, ptr %.16.val, ptr noundef %1, ptr %.8.val1, ptr %.16.val3) unnamed_addr #1 {
  %3 = tail call noalias dereferenceable_or_null(96) ptr @calloc(i64 noundef 1, i64 noundef 96) #34
  %4 = icmp eq ptr %3, null
  br i1 %4, label %5, label %pm_node_alloc.exit

5:                                                ; preds = %2
  %6 = load ptr, ptr @stderr, align 8, !tbaa !105
  %7 = tail call i32 (ptr, i32, ptr, ...) @__fprintf_chk(ptr noundef %6, i32 noundef 1, ptr noundef nonnull @.str.94, i32 noundef 96) #31
  tail call void @abort() #35
  unreachable

pm_node_alloc.exit:                               ; preds = %2
  %8 = load i32, ptr %0, align 8, !tbaa !107
  %9 = add i32 %8, 1
  store i32 %9, ptr %0, align 8, !tbaa !107
  store i16 24, ptr %3, align 8, !tbaa !108
  %.sroa.3.0..sroa_idx = getelementptr inbounds nuw i8, ptr %3, i64 4
  store i32 %9, ptr %.sroa.3.0..sroa_idx, align 4, !tbaa !7
  %.sroa.4.0..sroa_idx = getelementptr inbounds nuw i8, ptr %3, i64 8
  store ptr %.8.val, ptr %.sroa.4.0..sroa_idx, align 8, !tbaa !14
  %.sroa.5.0..sroa_idx = getelementptr inbounds nuw i8, ptr %3, i64 16
  store ptr %.16.val3, ptr %.sroa.5.0..sroa_idx, align 8, !tbaa !14
  %.sroa.6.0..sroa_idx = getelementptr inbounds nuw i8, ptr %3, i64 24
  store ptr %1, ptr %.sroa.6.0..sroa_idx, align 8, !tbaa !103
  %.sroa.9.0..sroa_idx = getelementptr inbounds nuw i8, ptr %3, i64 64
  store ptr %.8.val, ptr %.sroa.9.0..sroa_idx, align 8, !tbaa !14
  %.sroa.10.0..sroa_idx = getelementptr inbounds nuw i8, ptr %3, i64 72
  store ptr %.16.val, ptr %.sroa.10.0..sroa_idx, align 8, !tbaa !14
  %.sroa.11.0..sroa_idx = getelementptr inbounds nuw i8, ptr %3, i64 80
  store ptr %.8.val1, ptr %.sroa.11.0..sroa_idx, align 8, !tbaa !14
  %.sroa.12.0..sroa_idx = getelementptr inbounds nuw i8, ptr %3, i64 88
  store ptr %.16.val3, ptr %.sroa.12.0..sroa_idx, align 8, !tbaa !14
  ret ptr %3
}